target datalayout = "e-m:e-p270:32:32-p271:32:32-p272:64:64-i64:64-i128:128-f80:128-n8:16:32:64-S128"
target triple = "x86_64-pc-linux-gnu"

%struct.m384 = type { <2 x i64>, <2 x i64>, <2 x i64> }
%struct.unaligned = type { i32 }
%struct.unaligned.0 = type { i16 }
%struct.unaligned.3 = type { i64 }

; Function Attrs: alwaysinline nounwind uwtable
define internal void @unaligned_store_u16(ptr noundef %0, i16 noundef zeroext %1) #2 {
  %3 = alloca ptr, align 8
  %4 = alloca i16, align 2
  %5 = alloca ptr, align 8
  store ptr %0, ptr %3, align 8
  store i16 %1, ptr %4, align 2
  call void @llvm.lifetime.start.p0(i64 8, ptr %5) #10
  %6 = load ptr, ptr %3, align 8
  store ptr %6, ptr %5, align 8
  %7 = load i16, ptr %4, align 2
  %8 = load ptr, ptr %5, align 8
  %9 = getelementptr inbounds nuw %struct.unaligned.0, ptr %8, i32 0, i32 0
  store i16 %7, ptr %9, align 1
  call void @llvm.lifetime.end.p0(i64 8, ptr %5) #10
  ret void
}

; Function Attrs: alwaysinline nounwind uwtable
define internal void @unaligned_store_u32(ptr noundef %0, i32 noundef %1) #2 {
  %3 = alloca ptr, align 8
  %4 = alloca i32, align 4
  %5 = alloca ptr, align 8
  store ptr %0, ptr %3, align 8
  store i32 %1, ptr %4, align 4
  call void @llvm.lifetime.start.p0(i64 8, ptr %5) #10
  %6 = load ptr, ptr %3, align 8
  store ptr %6, ptr %5, align 8
  %7 = load i32, ptr %4, align 4
  %8 = load ptr, ptr %5, align 8
  %9 = getelementptr inbounds nuw %struct.unaligned, ptr %8, i32 0, i32 0
  store i32 %7, ptr %9, align 1
  call void @llvm.lifetime.end.p0(i64 8, ptr %5) #10
  ret void
}

; Function Attrs: alwaysinline nounwind uwtable
define internal void @partial_store_u64a(ptr noundef %0, i64 noundef %1, i32 noundef %2) #2 {
  %4 = alloca ptr, align 8
  %5 = alloca i64, align 8
  %6 = alloca i32, align 4
  store ptr %0, ptr %4, align 8
  store i64 %1, ptr %5, align 8
  store i32 %2, ptr %6, align 4
  %7 = load i32, ptr %6, align 4
  switch i32 %7, label %64 [
    i32 8, label %8
    i32 7, label %11
    i32 6, label %25
    i32 5, label %34
    i32 4, label %43
    i32 3, label %47
    i32 2, label %56
    i32 1, label %60
    i32 0, label %64
  ]

8:                                                ; preds = %3
  %9 = load ptr, ptr %4, align 8
  %10 = load i64, ptr %5, align 8
  call void @unaligned_store_u64a(ptr noundef %9, i64 noundef %10)
  br label %64

11:                                               ; preds = %3
  %12 = load ptr, ptr %4, align 8
  %13 = load i64, ptr %5, align 8
  %14 = trunc i64 %13 to i32
  call void @unaligned_store_u32(ptr noundef %12, i32 noundef %14)
  %15 = load ptr, ptr %4, align 8
  %16 = getelementptr inbounds i8, ptr %15, i64 4
  %17 = load i64, ptr %5, align 8
  %18 = lshr i64 %17, 32
  %19 = trunc i64 %18 to i16
  call void @unaligned_store_u16(ptr noundef %16, i16 noundef zeroext %19)
  %20 = load i64, ptr %5, align 8
  %21 = lshr i64 %20, 48
  %22 = trunc i64 %21 to i8
  %23 = load ptr, ptr %4, align 8
  %24 = getelementptr inbounds i8, ptr %23, i64 6
  store i8 %22, ptr %24, align 1
  br label %64

25:                                               ; preds = %3
  %26 = load ptr, ptr %4, align 8
  %27 = load i64, ptr %5, align 8
  %28 = trunc i64 %27 to i32
  call void @unaligned_store_u32(ptr noundef %26, i32 noundef %28)
  %29 = load ptr, ptr %4, align 8
  %30 = getelementptr inbounds i8, ptr %29, i64 4
  %31 = load i64, ptr %5, align 8
  %32 = lshr i64 %31, 32
  %33 = trunc i64 %32 to i16
  call void @unaligned_store_u16(ptr noundef %30, i16 noundef zeroext %33)
  br label %64

34:                                               ; preds = %3
  %35 = load ptr, ptr %4, align 8
  %36 = load i64, ptr %5, align 8
  %37 = trunc i64 %36 to i32
  call void @unaligned_store_u32(ptr noundef %35, i32 noundef %37)
  %38 = load i64, ptr %5, align 8
  %39 = lshr i64 %38, 32
  %40 = trunc i64 %39 to i8
  %41 = load ptr, ptr %4, align 8
  %42 = getelementptr inbounds i8, ptr %41, i64 4
  store i8 %40, ptr %42, align 1
  br label %64

43:                                               ; preds = %3
  %44 = load ptr, ptr %4, align 8
  %45 = load i64, ptr %5, align 8
  %46 = trunc i64 %45 to i32
  call void @unaligned_store_u32(ptr noundef %44, i32 noundef %46)
  br label %64

47:                                               ; preds = %3
  %48 = load ptr, ptr %4, align 8
  %49 = load i64, ptr %5, align 8
  %50 = trunc i64 %49 to i16
  call void @unaligned_store_u16(ptr noundef %48, i16 noundef zeroext %50)
  %51 = load i64, ptr %5, align 8
  %52 = lshr i64 %51, 16
  %53 = trunc i64 %52 to i8
  %54 = load ptr, ptr %4, align 8
  %55 = getelementptr inbounds i8, ptr %54, i64 2
  store i8 %53, ptr %55, align 1
  br label %64

56:                                               ; preds = %3
  %57 = load ptr, ptr %4, align 8
  %58 = load i64, ptr %5, align 8
  %59 = trunc i64 %58 to i16
  call void @unaligned_store_u16(ptr noundef %57, i16 noundef zeroext %59)
  br label %64

60:                                               ; preds = %3
  %61 = load i64, ptr %5, align 8
  %62 = trunc i64 %61 to i8
  %63 = load ptr, ptr %4, align 8
  store i8 %62, ptr %63, align 1
  br label %64

64:                                               ; preds = %3, %3, %60, %56, %47, %43, %34, %25, %11, %8
  ret void
}

; Function Attrs: alwaysinline nounwind uwtable
define internal void @unaligned_store_u64a(ptr noundef %0, i64 noundef %1) #2 {
  %3 = alloca ptr, align 8
  %4 = alloca i64, align 8
  %5 = alloca ptr, align 8
  store ptr %0, ptr %3, align 8
  store i64 %1, ptr %4, align 8
  call void @llvm.lifetime.start.p0(i64 8, ptr %5) #10
  %6 = load ptr, ptr %3, align 8
  store ptr %6, ptr %5, align 8
  %7 = load i64, ptr %4, align 8
  %8 = load ptr, ptr %5, align 8
  %9 = getelementptr inbounds nuw %struct.unaligned.3, ptr %8, i32 0, i32 0
  store i64 %7, ptr %9, align 1
  call void @llvm.lifetime.end.p0(i64 8, ptr %5) #10
  ret void
}

; Function Attrs: alwaysinline nounwind uwtable
define internal i64 @_pext_u64(i64 noundef %0, i64 noundef %1) #2 {
  %3 = alloca i64, align 8
  %4 = alloca i64, align 8
  store i64 %0, ptr %3, align 8
  store i64 %1, ptr %4, align 8
  %5 = load i64, ptr %3, align 8
  %6 = load i64, ptr %4, align 8
  %7 = call i64 @llvm.x86.bmi.pext.64(i64 %5, i64 %6)
  ret i64 %7
}

; Function Attrs: alwaysinline nounwind uwtable
define internal i64 @_mm_popcnt_u64(i64 noundef %0) #2 {
  %2 = alloca i64, align 8
  store i64 %0, ptr %2, align 8
  %3 = load i64, ptr %2, align 8
  %4 = call i64 @llvm.ctpop.i64(i64 %3)
  %5 = trunc i64 %4 to i32
  %6 = sext i32 %5 to i64
  ret i64 %6
}

; Function Attrs: alwaysinline nounwind uwtable
define internal void @pack_bits_64(ptr noundef %0, ptr noundef %1, ptr noundef %2, i32 noundef %3) #2 {
  %5 = alloca ptr, align 8
  %6 = alloca ptr, align 8
  %7 = alloca ptr, align 8
  %8 = alloca i32, align 4
  %9 = alloca i64, align 8
  %10 = alloca i32, align 4
  %11 = alloca i32, align 4
  %12 = alloca i32, align 4
  store ptr %0, ptr %5, align 8
  store ptr %1, ptr %6, align 8
  store ptr %2, ptr %7, align 8
  store i32 %3, ptr %8, align 4
  call void @llvm.lifetime.start.p0(i64 8, ptr %9) #10
  store i64 0, ptr %9, align 8
  call void @llvm.lifetime.start.p0(i64 4, ptr %10) #10
  store i32 0, ptr %10, align 4
  call void @llvm.lifetime.start.p0(i64 4, ptr %11) #10
  store i32 0, ptr %11, align 4
  br label %13

13:                                               ; preds = %66, %4
  %14 = load i32, ptr %11, align 4
  %15 = load i32, ptr %8, align 4
  %16 = icmp ult i32 %14, %15
  br i1 %16, label %18, label %17

17:                                               ; preds = %13
  call void @llvm.lifetime.end.p0(i64 4, ptr %11) #10
  br label %69

18:                                               ; preds = %13
  %19 = load ptr, ptr %6, align 8
  %20 = load i32, ptr %11, align 4
  %21 = zext i32 %20 to i64
  %22 = getelementptr inbounds nuw i64, ptr %19, i64 %21
  %23 = load i64, ptr %22, align 8
  %24 = load i32, ptr %10, align 4
  %25 = zext i32 %24 to i64
  %26 = shl i64 %23, %25
  %27 = load i64, ptr %9, align 8
  %28 = or i64 %27, %26
  store i64 %28, ptr %9, align 8
  %29 = load ptr, ptr %7, align 8
  %30 = load i32, ptr %11, align 4
  %31 = zext i32 %30 to i64
  %32 = getelementptr inbounds nuw i32, ptr %29, i64 %31
  %33 = load i32, ptr %32, align 4
  %34 = load i32, ptr %10, align 4
  %35 = add i32 %34, %33
  store i32 %35, ptr %10, align 4
  %36 = load i32, ptr %10, align 4
  %37 = icmp uge i32 %36, 64
  br i1 %37, label %38, label %65

38:                                               ; preds = %18
  %39 = load ptr, ptr %5, align 8
  %40 = load i64, ptr %9, align 8
  call void @unaligned_store_u64a(ptr noundef %39, i64 noundef %40)
  %41 = load ptr, ptr %5, align 8
  %42 = getelementptr inbounds i8, ptr %41, i64 8
  store ptr %42, ptr %5, align 8
  %43 = load i32, ptr %10, align 4
  %44 = sub i32 %43, 64
  store i32 %44, ptr %10, align 4
  call void @llvm.lifetime.start.p0(i64 4, ptr %12) #10
  %45 = load ptr, ptr %7, align 8
  %46 = load i32, ptr %11, align 4
  %47 = zext i32 %46 to i64
  %48 = getelementptr inbounds nuw i32, ptr %45, i64 %47
  %49 = load i32, ptr %48, align 4
  %50 = load i32, ptr %10, align 4
  %51 = sub i32 %49, %50
  store i32 %51, ptr %12, align 4
  %52 = load i32, ptr %12, align 4
  %53 = icmp eq i32 %52, 64
  br i1 %53, label %54, label %55

54:                                               ; preds = %38
  store i64 0, ptr %9, align 8
  br label %64

55:                                               ; preds = %38
  %56 = load ptr, ptr %6, align 8
  %57 = load i32, ptr %11, align 4
  %58 = zext i32 %57 to i64
  %59 = getelementptr inbounds nuw i64, ptr %56, i64 %58
  %60 = load i64, ptr %59, align 8
  %61 = load i32, ptr %12, align 4
  %62 = zext i32 %61 to i64
  %63 = lshr i64 %60, %62
  store i64 %63, ptr %9, align 8
  br label %64

64:                                               ; preds = %55, %54
  call void @llvm.lifetime.end.p0(i64 4, ptr %12) #10
  br label %65

65:                                               ; preds = %64, %18
  br label %66

66:                                               ; preds = %65
  %67 = load i32, ptr %11, align 4
  %68 = add i32 %67, 1
  store i32 %68, ptr %11, align 4
  br label %13

69:                                               ; preds = %17
  br label %70

70:                                               ; preds = %69
  br label %71

71:                                               ; preds = %70
  br label %72

72:                                               ; preds = %71
  %73 = load ptr, ptr %5, align 8
  %74 = load i64, ptr %9, align 8
  %75 = load i32, ptr %10, align 4
  %76 = add i32 %75, 7
  %77 = udiv i32 %76, 8
  call void @partial_store_u64a(ptr noundef %73, i64 noundef %74, i32 noundef %77)
  call void @llvm.lifetime.end.p0(i64 4, ptr %10) #10
  call void @llvm.lifetime.end.p0(i64 8, ptr %9) #10
  ret void
}

; Function Attrs: alwaysinline nounwind uwtable
define internal i64 @compress64(i64 noundef %0, i64 noundef %1) #2 {
  %3 = alloca i64, align 8
  %4 = alloca i64, align 8
  store i64 %0, ptr %3, align 8
  store i64 %1, ptr %4, align 8
  %5 = load i64, ptr %3, align 8
  %6 = load i64, ptr %4, align 8
  %7 = call i64 @_pext_u64(i64 noundef %5, i64 noundef %6)
  ret i64 %7
}

; Function Attrs: alwaysinline nounwind uwtable
define internal i32 @popcount64(i64 noundef %0) #2 {
  %2 = alloca i64, align 8
  store i64 %0, ptr %2, align 8
  %3 = load i64, ptr %2, align 8
  %4 = call i64 @_mm_popcnt_u64(i64 noundef %3)
  %5 = trunc i64 %4 to i32
  ret i32 %5
}

; Function Attrs: alwaysinline nounwind uwtable
define internal void @storecompressed384_64bit(ptr noundef %0, ptr noundef byval(%struct.m384) align 16 %1, ptr noundef byval(%struct.m384) align 16 %2) #2 {
  %4 = alloca ptr, align 8
  %5 = alloca [6 x i64], align 16
  %6 = alloca [6 x i64], align 16
  %7 = alloca [6 x i32], align 16
  %8 = alloca [6 x i64], align 16
  store ptr %0, ptr %4, align 8
  call void @llvm.lifetime.start.p0(i64 48, ptr %5) #10
  %9 = getelementptr inbounds [6 x i64], ptr %5, i64 0, i64 0
  call void @llvm.memcpy.p0.p0.i64(ptr align 16 %9, ptr align 16 %1, i64 48, i1 false)
  call void @llvm.lifetime.start.p0(i64 48, ptr %6) #10
  %10 = getelementptr inbounds [6 x i64], ptr %6, i64 0, i64 0
  call void @llvm.memcpy.p0.p0.i64(ptr align 16 %10, ptr align 16 %2, i64 48, i1 false)
  call void @llvm.lifetime.start.p0(i64 24, ptr %7) #10
  %11 = getelementptr inbounds [6 x i64], ptr %6, i64 0, i64 0
  %12 = load i64, ptr %11, align 16
  %13 = call i32 @popcount64(i64 noundef %12)
  store i32 %13, ptr %7, align 4
  %14 = getelementptr inbounds i32, ptr %7, i64 1
  %15 = getelementptr inbounds [6 x i64], ptr %6, i64 0, i64 1
  %16 = load i64, ptr %15, align 8
  %17 = call i32 @popcount64(i64 noundef %16)
  store i32 %17, ptr %14, align 4
  %18 = getelementptr inbounds i32, ptr %7, i64 2
  %19 = getelementptr inbounds [6 x i64], ptr %6, i64 0, i64 2
  %20 = load i64, ptr %19, align 16
  %21 = call i32 @popcount64(i64 noundef %20)
  store i32 %21, ptr %18, align 4
  %22 = getelementptr inbounds i32, ptr %7, i64 3
  %23 = getelementptr inbounds [6 x i64], ptr %6, i64 0, i64 3
  %24 = load i64, ptr %23, align 8
  %25 = call i32 @popcount64(i64 noundef %24)
  store i32 %25, ptr %22, align 4
  %26 = getelementptr inbounds i32, ptr %7, i64 4
  %27 = getelementptr inbounds [6 x i64], ptr %6, i64 0, i64 4
  %28 = load i64, ptr %27, align 16
  %29 = call i32 @popcount64(i64 noundef %28)
  store i32 %29, ptr %26, align 4
  %30 = getelementptr inbounds i32, ptr %7, i64 5
  %31 = getelementptr inbounds [6 x i64], ptr %6, i64 0, i64 5
  %32 = load i64, ptr %31, align 8
  %33 = call i32 @popcount64(i64 noundef %32)
  store i32 %33, ptr %30, align 4
  call void @llvm.lifetime.start.p0(i64 48, ptr %8) #10
  %34 = getelementptr inbounds [6 x i64], ptr %5, i64 0, i64 0
  %35 = load i64, ptr %34, align 16
  %36 = getelementptr inbounds [6 x i64], ptr %6, i64 0, i64 0
  %37 = load i64, ptr %36, align 16
  %38 = call i64 @compress64(i64 noundef %35, i64 noundef %37)
  store i64 %38, ptr %8, align 8
  %39 = getelementptr inbounds i64, ptr %8, i64 1
  %40 = getelementptr inbounds [6 x i64], ptr %5, i64 0, i64 1
  %41 = load i64, ptr %40, align 8
  %42 = getelementptr inbounds [6 x i64], ptr %6, i64 0, i64 1
  %43 = load i64, ptr %42, align 8
  %44 = call i64 @compress64(i64 noundef %41, i64 noundef %43)
  store i64 %44, ptr %39, align 8
  %45 = getelementptr inbounds i64, ptr %8, i64 2
  %46 = getelementptr inbounds [6 x i64], ptr %5, i64 0, i64 2
  %47 = load i64, ptr %46, align 16
  %48 = getelementptr inbounds [6 x i64], ptr %6, i64 0, i64 2
  %49 = load i64, ptr %48, align 16
  %50 = call i64 @compress64(i64 noundef %47, i64 noundef %49)
  store i64 %50, ptr %45, align 8
  %51 = getelementptr inbounds i64, ptr %8, i64 3
  %52 = getelementptr inbounds [6 x i64], ptr %5, i64 0, i64 3
  %53 = load i64, ptr %52, align 8
  %54 = getelementptr inbounds [6 x i64], ptr %6, i64 0, i64 3
  %55 = load i64, ptr %54, align 8
  %56 = call i64 @compress64(i64 noundef %53, i64 noundef %55)
  store i64 %56, ptr %51, align 8
  %57 = getelementptr inbounds i64, ptr %8, i64 4
  %58 = getelementptr inbounds [6 x i64], ptr %5, i64 0, i64 4
  %59 = load i64, ptr %58, align 16
  %60 = getelementptr inbounds [6 x i64], ptr %6, i64 0, i64 4
  %61 = load i64, ptr %60, align 16
  %62 = call i64 @compress64(i64 noundef %59, i64 noundef %61)
  store i64 %62, ptr %57, align 8
  %63 = getelementptr inbounds i64, ptr %8, i64 5
  %64 = getelementptr inbounds [6 x i64], ptr %5, i64 0, i64 5
  %65 = load i64, ptr %64, align 8
  %66 = getelementptr inbounds [6 x i64], ptr %6, i64 0, i64 5
  %67 = load i64, ptr %66, align 8
  %68 = call i64 @compress64(i64 noundef %65, i64 noundef %67)
  store i64 %68, ptr %63, align 8
  %69 = load ptr, ptr %4, align 8
  %70 = getelementptr inbounds [6 x i64], ptr %8, i64 0, i64 0
  %71 = getelementptr inbounds [6 x i32], ptr %7, i64 0, i64 0
  call void @pack_bits_64(ptr noundef %69, ptr noundef %70, ptr noundef %71, i32 noundef 6)
  call void @llvm.lifetime.end.p0(i64 48, ptr %8) #10
  call void @llvm.lifetime.end.p0(i64 24, ptr %7) #10
  call void @llvm.lifetime.end.p0(i64 48, ptr %6) #10
  call void @llvm.lifetime.end.p0(i64 48, ptr %5) #10
  ret void
}

; Function Attrs: nounwind uwtable
define hidden void @storecompressed384(ptr noundef %0, ptr noundef %1, ptr noundef %2, i32 noundef %3) #0 {
  %5 = alloca ptr, align 8
  %6 = alloca ptr, align 8
  %7 = alloca ptr, align 8
  %8 = alloca i32, align 4
  store ptr %0, ptr %5, align 8
  store ptr %1, ptr %6, align 8
  store ptr %2, ptr %7, align 8
  store i32 %3, ptr %8, align 4
  %9 = load ptr, ptr %5, align 8
  %10 = load ptr, ptr %6, align 8
  %11 = load ptr, ptr %7, align 8
  call void @storecompressed384_64bit(ptr noundef %9, ptr noundef byval(%struct.m384) align 16 %10, ptr noundef byval(%struct.m384) align 16 %11)
  ret void
}