; Function Attrs: nofree norecurse nosync nounwind memory(argmem: readwrite) uwtable
define hidden void @storecompressed384(ptr noundef writeonly captures(none) %0, ptr noundef readonly captures(none) %1, ptr noundef readonly captures(none) %2, i32 noundef %3) local_unnamed_addr #4 {
  %5 = alloca [6 x i32], align 16
  %6 = alloca [6 x i64], align 16
  %.sroa.03.0.copyload = load i64, ptr %2, align 1
  %.sroa.44.0..sroa_idx = getelementptr inbounds nuw i8, ptr %2, i64 8
  %.sroa.44.0.copyload = load i64, ptr %.sroa.44.0..sroa_idx, align 1
  %.sroa.55.0..sroa_idx = getelementptr inbounds nuw i8, ptr %2, i64 16
  %.sroa.55.0.copyload = load i64, ptr %.sroa.55.0..sroa_idx, align 1
  %.sroa.66.0..sroa_idx = getelementptr inbounds nuw i8, ptr %2, i64 24
  %.sroa.66.0.copyload = load i64, ptr %.sroa.66.0..sroa_idx, align 1
  %.sroa.77.0..sroa_idx = getelementptr inbounds nuw i8, ptr %2, i64 32
  %.sroa.77.0.copyload = load i64, ptr %.sroa.77.0..sroa_idx, align 1
  %.sroa.88.0..sroa_idx = getelementptr inbounds nuw i8, ptr %2, i64 40
  %.sroa.88.0.copyload = load i64, ptr %.sroa.88.0..sroa_idx, align 1
  %.sroa.0.0.copyload = load i64, ptr %1, align 1
  %.sroa.4.0..sroa_idx = getelementptr inbounds nuw i8, ptr %1, i64 8
  %.sroa.4.0.copyload = load i64, ptr %.sroa.4.0..sroa_idx, align 1
  %.sroa.5.0..sroa_idx = getelementptr inbounds nuw i8, ptr %1, i64 16
  %.sroa.5.0.copyload = load i64, ptr %.sroa.5.0..sroa_idx, align 1
  %.sroa.6.0..sroa_idx = getelementptr inbounds nuw i8, ptr %1, i64 24
  %.sroa.6.0.copyload = load i64, ptr %.sroa.6.0..sroa_idx, align 1
  %.sroa.7.0..sroa_idx = getelementptr inbounds nuw i8, ptr %1, i64 32
  %.sroa.7.0.copyload = load i64, ptr %.sroa.7.0..sroa_idx, align 1
  %.sroa.8.0..sroa_idx = getelementptr inbounds nuw i8, ptr %1, i64 40
  %.sroa.8.0.copyload = load i64, ptr %.sroa.8.0..sroa_idx, align 1
  call void @llvm.lifetime.start.p0(i64 24, ptr nonnull %5) #7
  %7 = tail call range(i64 0, 65) i64 @llvm.ctpop.i64(i64 %.sroa.03.0.copyload)
  %8 = trunc nuw nsw i64 %7 to i32
  store i32 %8, ptr %5, align 16
  %9 = getelementptr inbounds nuw i8, ptr %5, i64 4
  %10 = tail call range(i64 0, 65) i64 @llvm.ctpop.i64(i64 %.sroa.44.0.copyload)
  %11 = trunc nuw nsw i64 %10 to i32
  store i32 %11, ptr %9, align 4
  %12 = getelementptr inbounds nuw i8, ptr %5, i64 8
  %13 = tail call range(i64 0, 65) i64 @llvm.ctpop.i64(i64 %.sroa.55.0.copyload)
  %14 = trunc nuw nsw i64 %13 to i32
  store i32 %14, ptr %12, align 8
  %15 = getelementptr inbounds nuw i8, ptr %5, i64 12
  %16 = tail call range(i64 0, 65) i64 @llvm.ctpop.i64(i64 %.sroa.66.0.copyload)
  %17 = trunc nuw nsw i64 %16 to i32
  store i32 %17, ptr %15, align 4
  %18 = getelementptr inbounds nuw i8, ptr %5, i64 16
  %19 = tail call range(i64 0, 65) i64 @llvm.ctpop.i64(i64 %.sroa.77.0.copyload)
  %20 = trunc nuw nsw i64 %19 to i32
  store i32 %20, ptr %18, align 16
  %21 = getelementptr inbounds nuw i8, ptr %5, i64 20
  %22 = tail call range(i64 0, 65) i64 @llvm.ctpop.i64(i64 %.sroa.88.0.copyload)
  %23 = trunc nuw nsw i64 %22 to i32
  store i32 %23, ptr %21, align 4
  call void @llvm.lifetime.start.p0(i64 48, ptr nonnull %6) #7
  %24 = tail call i64 @llvm.x86.bmi.pext.64(i64 %.sroa.0.0.copyload, i64 %.sroa.03.0.copyload)
  store i64 %24, ptr %6, align 16
  %25 = getelementptr inbounds nuw i8, ptr %6, i64 8
  %26 = tail call i64 @llvm.x86.bmi.pext.64(i64 %.sroa.4.0.copyload, i64 %.sroa.44.0.copyload)
  store i64 %26, ptr %25, align 8
  %27 = getelementptr inbounds nuw i8, ptr %6, i64 16
  %28 = tail call i64 @llvm.x86.bmi.pext.64(i64 %.sroa.5.0.copyload, i64 %.sroa.55.0.copyload)
  store i64 %28, ptr %27, align 16
  %29 = getelementptr inbounds nuw i8, ptr %6, i64 24
  %30 = tail call i64 @llvm.x86.bmi.pext.64(i64 %.sroa.6.0.copyload, i64 %.sroa.66.0.copyload)
  store i64 %30, ptr %29, align 8
  %31 = getelementptr inbounds nuw i8, ptr %6, i64 32
  %32 = tail call i64 @llvm.x86.bmi.pext.64(i64 %.sroa.7.0.copyload, i64 %.sroa.77.0.copyload)
  store i64 %32, ptr %31, align 16
  %33 = getelementptr inbounds nuw i8, ptr %6, i64 40
  %34 = tail call i64 @llvm.x86.bmi.pext.64(i64 %.sroa.8.0.copyload, i64 %.sroa.88.0.copyload)
  store i64 %34, ptr %33, align 8
  br label %68

35:                                               ; preds = %88
  %36 = add nuw i32 %.126.i, 7
  %37 = lshr i32 %36, 3
  switch i32 %37, label %pack_bits_64.exit [
    i32 8, label %38
    i32 7, label %39
    i32 6, label %47
    i32 5, label %52
    i32 4, label %57
    i32 3, label %59
    i32 2, label %64
    i32 1, label %66
  ]

38:                                               ; preds = %35
  store i64 %.2.i, ptr %.1.i, align 1
  br label %pack_bits_64.exit

39:                                               ; preds = %35
  %40 = trunc i64 %.2.i to i32
  store i32 %40, ptr %.1.i, align 1
  %41 = getelementptr inbounds nuw i8, ptr %.1.i, i64 4
  %42 = lshr i64 %.2.i, 32
  %43 = trunc i64 %42 to i16
  store i16 %43, ptr %41, align 1
  %44 = lshr i64 %.2.i, 48
  %45 = trunc i64 %44 to i8
  %46 = getelementptr inbounds nuw i8, ptr %.1.i, i64 6
  store i8 %45, ptr %46, align 1
  br label %pack_bits_64.exit

47:                                               ; preds = %35
  %48 = trunc i64 %.2.i to i32
  store i32 %48, ptr %.1.i, align 1
  %49 = getelementptr inbounds nuw i8, ptr %.1.i, i64 4
  %50 = lshr i64 %.2.i, 32
  %51 = trunc i64 %50 to i16
  store i16 %51, ptr %49, align 1
  br label %pack_bits_64.exit

52:                                               ; preds = %35
  %53 = trunc i64 %.2.i to i32
  store i32 %53, ptr %.1.i, align 1
  %54 = lshr i64 %.2.i, 32
  %55 = trunc i64 %54 to i8
  %56 = getelementptr inbounds nuw i8, ptr %.1.i, i64 4
  store i8 %55, ptr %56, align 1
  br label %pack_bits_64.exit

57:                                               ; preds = %35
  %58 = trunc i64 %.2.i to i32
  store i32 %58, ptr %.1.i, align 1
  br label %pack_bits_64.exit

59:                                               ; preds = %35
  %60 = trunc i64 %.2.i to i16
  store i16 %60, ptr %.1.i, align 1
  %61 = lshr i64 %.2.i, 16
  %62 = trunc i64 %61 to i8
  %63 = getelementptr inbounds nuw i8, ptr %.1.i, i64 2
  store i8 %62, ptr %63, align 1
  br label %pack_bits_64.exit

64:                                               ; preds = %35
  %65 = trunc i64 %.2.i to i16
  store i16 %65, ptr %.1.i, align 1
  br label %pack_bits_64.exit

66:                                               ; preds = %35
  %67 = trunc i64 %.2.i to i8
  store i8 %67, ptr %.1.i, align 1
  br label %pack_bits_64.exit

68:                                               ; preds = %4, %88
  %indvars.iv = phi i64 [ 0, %4 ], [ %indvars.iv.next, %88 ]
  %.0.i12 = phi ptr [ %0, %4 ], [ %.1.i, %88 ]
  %.025.i10 = phi i32 [ 0, %4 ], [ %.126.i, %88 ]
  %.027.i9 = phi i64 [ 0, %4 ], [ %.2.i, %88 ]
  %69 = getelementptr inbounds nuw i64, ptr %6, i64 %indvars.iv
  %70 = load i64, ptr %69, align 8
  %71 = zext nneg i32 %.025.i10 to i64
  %72 = shl i64 %70, %71
  %73 = or i64 %72, %.027.i9
  %74 = getelementptr inbounds nuw i32, ptr %5, i64 %indvars.iv
  %75 = load i32, ptr %74, align 4
  %76 = add i32 %75, %.025.i10
  %77 = icmp ugt i32 %76, 63
  br i1 %77, label %78, label %88

78:                                               ; preds = %68
  store i64 %73, ptr %.0.i12, align 1
  %79 = getelementptr inbounds nuw i8, ptr %.0.i12, i64 8
  %80 = add i32 %76, -64
  %81 = load i32, ptr %74, align 4
  %82 = sub i32 %81, %80
  %83 = icmp eq i32 %82, 64
  br i1 %83, label %88, label %84

84:                                               ; preds = %78
  %85 = load i64, ptr %69, align 8
  %86 = zext nneg i32 %82 to i64
  %87 = lshr i64 %85, %86
  br label %88

88:                                               ; preds = %84, %78, %68
  %.2.i = phi i64 [ %73, %68 ], [ %87, %84 ], [ 0, %78 ]
  %.126.i = phi i32 [ %76, %68 ], [ %80, %84 ], [ %80, %78 ]
  %.1.i = phi ptr [ %.0.i12, %68 ], [ %79, %84 ], [ %79, %78 ]
  %indvars.iv.next = add nuw nsw i64 %indvars.iv, 1
  %exitcond.not = icmp eq i64 %indvars.iv.next, 6
  br i1 %exitcond.not, label %35, label %68

pack_bits_64.exit:                                ; preds = %35, %38, %39, %47, %52, %57, %59, %64, %66
  call void @llvm.lifetime.end.p0(i64 48, ptr nonnull %6) #7
  call void @llvm.lifetime.end.p0(i64 24, ptr nonnull %5) #7
  ret void
}